target datalayout = "e-m:e-p270:32:32-p271:32:32-p272:64:64-i64:64-i128:128-f80:128-n8:16:32:64-S128"
target triple = "x86_64-pc-linux-gnu"

%struct.lv_ll_t = type { i32, ptr, ptr }
%struct.lv_style_t = type { ptr, i32, i8 }
%struct._lv_spangroup_t = type { %struct._lv_obj_t, i32, i32, i32, i32, %struct.lv_ll_t, i8 }
%struct._lv_obj_t = type { ptr, ptr, ptr, ptr, ptr, %struct.lv_area_t, i32, i16, i16 }
%struct.lv_area_t = type { i32, i32, i32, i32 }
%struct._lv_span_t = type { ptr, ptr, %struct.lv_style_t, i8, %struct.lv_point_t, i32 }
%struct.lv_point_t = type { i32, i32 }

@.str.1 = private unnamed_addr constant [1 x i8] zeroinitializer, align 1

; Function Attrs: nounwind uwtable
define internal void @refresh_self_size(ptr noundef %0) #0 {
  %2 = alloca ptr, align 8
  %3 = alloca ptr, align 8
  store ptr %0, ptr %2, align 8, !tbaa !3
  call void @llvm.lifetime.start.p0(i64 8, ptr %3) #6
  %4 = load ptr, ptr %2, align 8, !tbaa !3
  store ptr %4, ptr %3, align 8, !tbaa !3
  %5 = load ptr, ptr %3, align 8, !tbaa !3
  %6 = getelementptr inbounds nuw %struct._lv_spangroup_t, ptr %5, i32 0, i32 6
  %7 = load i8, ptr %6, align 8
  %8 = and i8 %7, -9
  %9 = or i8 %8, 8
  store i8 %9, ptr %6, align 8
  %10 = load ptr, ptr %2, align 8, !tbaa !3
  call void @lv_obj_invalidate(ptr noundef %10)
  %11 = load ptr, ptr %2, align 8, !tbaa !3
  %12 = call zeroext i1 @lv_obj_refresh_self_size(ptr noundef %11)
  call void @llvm.lifetime.end.p0(i64 8, ptr %3) #6
  ret void
}

; Function Attrs: nounwind uwtable
define ptr @lv_spangroup_new_span(ptr noundef %0) #0 {
  %2 = alloca ptr, align 8
  %3 = alloca ptr, align 8
  %4 = alloca ptr, align 8
  %5 = alloca ptr, align 8
  store ptr %0, ptr %3, align 8, !tbaa !3
  %6 = load ptr, ptr %3, align 8, !tbaa !3
  %7 = icmp eq ptr %6, null
  br i1 %7, label %8, label %9

8:                                                ; preds = %1
  store ptr null, ptr %2, align 8
  br label %42

9:                                                ; preds = %1
  br label %10

10:                                               ; preds = %9
  br label %11

11:                                               ; preds = %10
  call void @llvm.lifetime.start.p0(i64 8, ptr %4) #6
  %12 = load ptr, ptr %3, align 8, !tbaa !3
  store ptr %12, ptr %4, align 8, !tbaa !3
  call void @llvm.lifetime.start.p0(i64 8, ptr %5) #6
  %13 = load ptr, ptr %4, align 8, !tbaa !3
  %14 = getelementptr inbounds nuw %struct._lv_spangroup_t, ptr %13, i32 0, i32 5
  %15 = call ptr @lv_ll_ins_tail(ptr noundef %14)
  store ptr %15, ptr %5, align 8, !tbaa !3
  br label %16

16:                                               ; preds = %11
  %17 = load ptr, ptr %5, align 8, !tbaa !3
  %18 = icmp ne ptr %17, null
  br i1 %18, label %25, label %19

19:                                               ; preds = %16
  br label %20

20:                                               ; preds = %19
  br label %21

21:                                               ; preds = %20
  br label %22

22:                                               ; preds = %21
  br label %23

23:                                               ; preds = %24, %22
  br label %24

24:                                               ; preds = %23
  br label %23

25:                                               ; preds = %16
  br label %26

26:                                               ; preds = %25
  br label %27

27:                                               ; preds = %26
  %28 = load ptr, ptr %5, align 8, !tbaa !3
  %29 = getelementptr inbounds nuw %struct._lv_span_t, ptr %28, i32 0, i32 2
  call void @lv_style_init(ptr noundef %29)
  %30 = load ptr, ptr %5, align 8, !tbaa !3
  %31 = getelementptr inbounds nuw %struct._lv_span_t, ptr %30, i32 0, i32 0
  store ptr @.str.1, ptr %31, align 8, !tbaa !17
  %32 = load ptr, ptr %5, align 8, !tbaa !3
  %33 = getelementptr inbounds nuw %struct._lv_span_t, ptr %32, i32 0, i32 3
  %34 = load i8, ptr %33, align 8
  %35 = and i8 %34, -2
  %36 = or i8 %35, 1
  store i8 %36, ptr %33, align 8
  %37 = load ptr, ptr %3, align 8, !tbaa !3
  %38 = load ptr, ptr %5, align 8, !tbaa !3
  %39 = getelementptr inbounds nuw %struct._lv_span_t, ptr %38, i32 0, i32 1
  store ptr %37, ptr %39, align 8, !tbaa !36
  %40 = load ptr, ptr %3, align 8, !tbaa !3
  call void @refresh_self_size(ptr noundef %40)
  %41 = load ptr, ptr %5, align 8, !tbaa !3
  store ptr %41, ptr %2, align 8
  call void @llvm.lifetime.end.p0(i64 8, ptr %5) #6
  call void @llvm.lifetime.end.p0(i64 8, ptr %4) #6
  br label %42

42:                                               ; preds = %27, %8
  %43 = load ptr, ptr %2, align 8
  ret ptr %43
}