; Function Attrs: nounwind uwtable
define ptr @lv_spangroup_new_span(ptr noundef %0) local_unnamed_addr #0 {
  %2 = icmp eq ptr %0, null
  br i1 %2, label %16, label %3

3:                                                ; preds = %1
  %4 = getelementptr inbounds nuw i8, ptr %0, i64 80
  %5 = tail call ptr @lv_ll_ins_tail(ptr noundef nonnull %4) #8
  %.not = icmp eq ptr %5, null
  br i1 %.not, label %.preheader, label %6

.preheader:                                       ; preds = %3, %.preheader
  br label %.preheader

6:                                                ; preds = %3
  %7 = getelementptr inbounds nuw i8, ptr %5, i64 16
  tail call void @lv_style_init(ptr noundef nonnull %7) #8
  store ptr @.str.1, ptr %5, align 8, !tbaa !16
  %8 = getelementptr inbounds nuw i8, ptr %5, i64 32
  %9 = load i8, ptr %8, align 8
  %10 = or i8 %9, 1
  store i8 %10, ptr %8, align 8
  %11 = getelementptr inbounds nuw i8, ptr %5, i64 8
  store ptr %0, ptr %11, align 8, !tbaa !72
  %12 = getelementptr inbounds nuw i8, ptr %0, i64 104
  %13 = load i8, ptr %12, align 8
  %14 = or i8 %13, 8
  store i8 %14, ptr %12, align 8
  tail call void @lv_obj_invalidate(ptr noundef nonnull %0) #8
  %15 = tail call zeroext i1 @lv_obj_refresh_self_size(ptr noundef nonnull %0) #8
  br label %16

16:                                               ; preds = %1, %6
  %.0 = phi ptr [ %5, %6 ], [ null, %1 ]
  ret ptr %.0
}